ccopy_reg
_reconstructor
p0
(csklearn.linear_model.base
LinearRegression
p1
c__builtin__
object
p2
Ntp3
Rp4
(dp5
S'normalize'
p6
I00
sS'n_jobs'
p7
I1
sS'rank_'
p8
I5
sS'fit_intercept'
p9
I01
sS'_residues'
p10
cnumpy.core.multiarray
scalar
p11
(cnumpy
dtype
p12
(S'f8'
p13
I0
I1
tp14
Rp15
(I3
S'<'
p16
NNNI-1
I-1
I0
tp17
bS'h\xa3O"0\xc8\xdb@'
p18
tp19
Rp20
sS'singular_'
p21
cnumpy.core.multiarray
_reconstruct
p22
(cnumpy
ndarray
p23
(I0
tp24
S'b'
p25
tp26
Rp27
(I1
(L5L
tp28
g15
I00
S'\xd4$\x15\xd6\xae$\xfb@\xcb\x8a\xb0\xfab\xba\x80@\xee\x19\x8fT\x84vh@\x11\x84\x92MG9\x06@\x92\xddX"s\r\xd2?'
p29
tp30
bsS'coef_'
p31
g22
(g23
(I0
tp32
g25
tp33
Rp34
(I1
(L5L
tp35
g15
I00
S'Q7\xc6y\xcc\xa1T\xbfOD\xbe\x84%@\xdb\xbf\xbc\x17\x134\xe7hA\xc0\xb9\xf0\x03hW\xd8\xba?q\r)L\x92\x82a\xc0'
p36
tp37
bsS'_sklearn_version'
p38
S'0.18.2'
p39
sS'copy_X'
p40
I01
sS'intercept_'
p41
g11
(g15
S'\xc5!+\x17]\x89`@'
p42
tp43
Rp44
sb.