ccopy_reg
_reconstructor
p0
(csklearn.linear_model.base
LinearRegression
p1
c__builtin__
object
p2
Ntp3
Rp4
(dp5
S'normalize'
p6
I00
sS'n_jobs'
p7
I10
sS'rank_'
p8
I4
sS'fit_intercept'
p9
I01
sS'_residues'
p10
cnumpy.core.multiarray
scalar
p11
(cnumpy
dtype
p12
(S'f8'
p13
I0
I1
tp14
Rp15
(I3
S'<'
p16
NNNI-1
I-1
I0
tp17
bS'\xc8O\x1d\x18\xb9xIA'
p18
tp19
Rp20
sS'singular_'
p21
cnumpy.core.multiarray
_reconstruct
p22
(cnumpy
ndarray
p23
(I0
tp24
S'b'
p25
tp26
Rp27
(I1
(L4L
tp28
g15
I00
S'\x89\x01W\xad\xa6\xfcQ@\xc7"\x02 \xd8$M@\x16Y\x1c\xa4\xac\xc8@@g4\x87\xe1\xba\xed6@'
p29
tp30
bsS'coef_'
p31
g22
(g23
(I0
tp32
g25
tp33
Rp34
(I1
(L4L
tp35
g15
I00
S'\xa2\xc3\xcd\\,\xf5k@i\x89mp\x86g\x00\xc0z\xff\xb5\xc5|\x15\xf1\xbf\xd0&\xe4i9\x86\x07\xc0'
p36
tp37
bsS'_sklearn_version'
p38
S'0.18.2'
p39
sS'copy_X'
p40
I01
sS'intercept_'
p41
g11
(g15
S'\x12y\xe1p\xaf_x@'
p42
tp43
Rp44
sb.